target datalayout = "e-m:e-p270:32:32-p271:32:32-p272:64:64-i64:64-i128:128-f80:128-n8:16:32:64-S128"
target triple = "x86_64-unknown-linux-gnu"

%"class.QuantLib::Array" = type { %"class.std::unique_ptr", i64 }
%"class.std::unique_ptr" = type { %"struct.std::__uniq_ptr_data" }
%"struct.std::__uniq_ptr_data" = type { %"class.std::__uniq_ptr_impl" }
%"class.std::__uniq_ptr_impl" = type { %"class.std::tuple" }
%"class.std::tuple" = type { %"struct.std::_Tuple_impl" }
%"struct.std::_Tuple_impl" = type { %"struct.std::_Head_base.1" }
%"struct.std::_Head_base.1" = type { ptr }
%"struct.QuantLib::DifferentialEvolution::Candidate" = type { %"class.QuantLib::Array", double }
%"class.QuantLib::DifferentialEvolution::Configuration" = type { i32, i32, i64, double, double, i64, i8, i8, %"class.std::vector", %"class.QuantLib::Array", %"class.QuantLib::Array" }
%"class.std::vector" = type { %"struct.std::_Vector_base" }
%"struct.std::_Vector_base" = type { %"struct.std::_Vector_base<QuantLib::Array, std::allocator<QuantLib::Array>>::_Vector_impl" }
%"struct.std::_Vector_base<QuantLib::Array, std::allocator<QuantLib::Array>>::_Vector_impl" = type { %"struct.std::_Vector_base<QuantLib::Array, std::allocator<QuantLib::Array>>::_Vector_impl_data" }
%"struct.std::_Vector_base<QuantLib::Array, std::allocator<QuantLib::Array>>::_Vector_impl_data" = type { ptr, ptr, ptr }
%"class.QuantLib::DifferentialEvolution" = type { %"class.QuantLib::OptimizationMethod", %"class.QuantLib::DifferentialEvolution::Configuration", %"class.QuantLib::Array", %"class.QuantLib::Array", %"class.QuantLib::Array", %"class.QuantLib::Array", %"struct.QuantLib::DifferentialEvolution::Candidate", %"class.QuantLib::MersenneTwisterUniformRng" }
%"class.QuantLib::OptimizationMethod" = type { ptr }
%"class.QuantLib::MersenneTwisterUniformRng" = type { [624 x i64], i64 }

; Function Attrs: mustprogress nounwind uwtable
define linkonce_odr noundef nonnull align 8 dereferenceable(8) ptr @_ZNSt10_Head_baseILm0EPdLb0EE7_M_headERKS1_(ptr noundef nonnull align 8 dereferenceable(8) %__b) #3 comdat align 2 {
entry:
  %__b.addr = alloca ptr, align 8
  store ptr %__b, ptr %__b.addr, align 8, !tbaa !3
  %0 = load ptr, ptr %__b.addr, align 8, !tbaa !3
  %_M_head_impl = getelementptr inbounds nuw %"struct.std::_Head_base.1", ptr %0, i32 0, i32 0
  ret ptr %_M_head_impl
}

; Function Attrs: mustprogress nounwind uwtable
define linkonce_odr noundef nonnull align 8 dereferenceable(8) ptr @_ZNSt11_Tuple_implILm0EJPdSt14default_deleteIA_dEEE7_M_headERKS4_(ptr noundef nonnull align 8 dereferenceable(8) %__t) #3 comdat align 2 {
entry:
  %__t.addr = alloca ptr, align 8
  store ptr %__t, ptr %__t.addr, align 8, !tbaa !3
  %0 = load ptr, ptr %__t.addr, align 8, !tbaa !3
  %call = call noundef nonnull align 8 dereferenceable(8) ptr @_ZNSt10_Head_baseILm0EPdLb0EE7_M_headERKS1_(ptr noundef nonnull align 8 dereferenceable(8) %0) #16
  ret ptr %call
}

; Function Attrs: mustprogress nounwind uwtable
define linkonce_odr noundef nonnull align 8 dereferenceable(8) ptr @_ZSt12__get_helperILm0EPdJSt14default_deleteIA_dEEERKT0_RKSt11_Tuple_implIXT_EJS4_DpT1_EE(ptr noundef nonnull align 8 dereferenceable(8) %__t) #3 comdat {
entry:
  %__t.addr = alloca ptr, align 8
  store ptr %__t, ptr %__t.addr, align 8, !tbaa !3
  %0 = load ptr, ptr %__t.addr, align 8, !tbaa !3
  %call = call noundef nonnull align 8 dereferenceable(8) ptr @_ZNSt11_Tuple_implILm0EJPdSt14default_deleteIA_dEEE7_M_headERKS4_(ptr noundef nonnull align 8 dereferenceable(8) %0) #16
  ret ptr %call
}

; Function Attrs: mustprogress nounwind uwtable
define linkonce_odr noundef nonnull align 8 dereferenceable(8) ptr @_ZSt3getILm0EJPdSt14default_deleteIA_dEEERKNSt13tuple_elementIXT_ESt5tupleIJDpT0_EEE4typeERKS8_(ptr noundef nonnull align 8 dereferenceable(8) %__t) #3 comdat {
entry:
  %__t.addr = alloca ptr, align 8
  store ptr %__t, ptr %__t.addr, align 8, !tbaa !3
  %0 = load ptr, ptr %__t.addr, align 8, !tbaa !3
  %call = call noundef nonnull align 8 dereferenceable(8) ptr @_ZSt12__get_helperILm0EPdJSt14default_deleteIA_dEEERKT0_RKSt11_Tuple_implIXT_EJS4_DpT1_EE(ptr noundef nonnull align 8 dereferenceable(8) %0) #16
  ret ptr %call
}

; Function Attrs: mustprogress nounwind uwtable
define linkonce_odr noundef ptr @_ZNKSt15__uniq_ptr_implIdSt14default_deleteIA_dEE6_M_ptrEv(ptr noundef nonnull align 8 dereferenceable(8) %this) #3 comdat align 2 {
entry:
  %this.addr = alloca ptr, align 8
  store ptr %this, ptr %this.addr, align 8, !tbaa !3
  %this1 = load ptr, ptr %this.addr, align 8
  %_M_t = getelementptr inbounds nuw %"class.std::__uniq_ptr_impl", ptr %this1, i32 0, i32 0
  %call = call noundef nonnull align 8 dereferenceable(8) ptr @_ZSt3getILm0EJPdSt14default_deleteIA_dEEERKNSt13tuple_elementIXT_ESt5tupleIJDpT0_EEE4typeERKS8_(ptr noundef nonnull align 8 dereferenceable(8) %_M_t) #16
  %0 = load ptr, ptr %call, align 8, !tbaa !3
  ret ptr %0
}

; Function Attrs: mustprogress nounwind uwtable
define linkonce_odr noundef ptr @_ZNKSt10unique_ptrIA_dSt14default_deleteIS0_EE3getEv(ptr noundef nonnull align 8 dereferenceable(8) %this) #3 comdat align 2 {
entry:
  %this.addr = alloca ptr, align 8
  store ptr %this, ptr %this.addr, align 8, !tbaa !3
  %this1 = load ptr, ptr %this.addr, align 8
  %_M_t = getelementptr inbounds nuw %"class.std::unique_ptr", ptr %this1, i32 0, i32 0
  %call = call noundef ptr @_ZNKSt15__uniq_ptr_implIdSt14default_deleteIA_dEE6_M_ptrEv(ptr noundef nonnull align 8 dereferenceable(8) %_M_t) #16
  ret ptr %call
}

; Function Attrs: mustprogress uwtable
define linkonce_odr noundef i64 @_ZNK8QuantLib25MersenneTwisterUniformRng9nextInt32Ev(ptr noundef nonnull align 8 dereferenceable(5000) %this) #0 comdat align 2 {
entry:
  %this.addr = alloca ptr, align 8
  %y = alloca i64, align 8
  store ptr %this, ptr %this.addr, align 8, !tbaa !3
  %this1 = load ptr, ptr %this.addr, align 8
  %mti = getelementptr inbounds nuw %"class.QuantLib::MersenneTwisterUniformRng", ptr %this1, i32 0, i32 1
  %0 = load i64, ptr %mti, align 8, !tbaa !102
  %cmp = icmp eq i64 %0, 624
  br i1 %cmp, label %if.then, label %if.end

if.then:                                          ; preds = %entry
  call void @_ZNK8QuantLib25MersenneTwisterUniformRng5twistEv(ptr noundef nonnull align 8 dereferenceable(5000) %this1)
  br label %if.end

if.end:                                           ; preds = %if.then, %entry
  call void @llvm.lifetime.start.p0(i64 8, ptr %y) #16
  %mt = getelementptr inbounds nuw %"class.QuantLib::MersenneTwisterUniformRng", ptr %this1, i32 0, i32 0
  %mti2 = getelementptr inbounds nuw %"class.QuantLib::MersenneTwisterUniformRng", ptr %this1, i32 0, i32 1
  %1 = load i64, ptr %mti2, align 8, !tbaa !102
  %inc = add i64 %1, 1
  store i64 %inc, ptr %mti2, align 8, !tbaa !102
  %arrayidx = getelementptr inbounds nuw [624 x i64], ptr %mt, i64 0, i64 %1
  %2 = load i64, ptr %arrayidx, align 8, !tbaa !27
  store i64 %2, ptr %y, align 8, !tbaa !27
  %3 = load i64, ptr %y, align 8, !tbaa !27
  %shr = lshr i64 %3, 11
  %4 = load i64, ptr %y, align 8, !tbaa !27
  %xor = xor i64 %4, %shr
  store i64 %xor, ptr %y, align 8, !tbaa !27
  %5 = load i64, ptr %y, align 8, !tbaa !27
  %shl = shl i64 %5, 7
  %and = and i64 %shl, 2636928640
  %6 = load i64, ptr %y, align 8, !tbaa !27
  %xor3 = xor i64 %6, %and
  store i64 %xor3, ptr %y, align 8, !tbaa !27
  %7 = load i64, ptr %y, align 8, !tbaa !27
  %shl4 = shl i64 %7, 15
  %and5 = and i64 %shl4, 4022730752
  %8 = load i64, ptr %y, align 8, !tbaa !27
  %xor6 = xor i64 %8, %and5
  store i64 %xor6, ptr %y, align 8, !tbaa !27
  %9 = load i64, ptr %y, align 8, !tbaa !27
  %shr7 = lshr i64 %9, 18
  %10 = load i64, ptr %y, align 8, !tbaa !27
  %xor8 = xor i64 %10, %shr7
  store i64 %xor8, ptr %y, align 8, !tbaa !27
  %11 = load i64, ptr %y, align 8, !tbaa !27
  call void @llvm.lifetime.end.p0(i64 8, ptr %y) #16
  ret i64 %11
}

; Function Attrs: inlinehint mustprogress nounwind uwtable
define linkonce_odr noundef nonnull align 8 dereferenceable(8) ptr @_ZN8QuantLib5ArrayixEm(ptr noundef nonnull align 8 dereferenceable(16) %this, i64 noundef %i) #4 comdat align 2 {
entry:
  %this.addr = alloca ptr, align 8
  %i.addr = alloca i64, align 8
  store ptr %this, ptr %this.addr, align 8, !tbaa !3
  store i64 %i, ptr %i.addr, align 8, !tbaa !27
  %this1 = load ptr, ptr %this.addr, align 8
  %data_ = getelementptr inbounds nuw %"class.QuantLib::Array", ptr %this1, i32 0, i32 0
  %call = call noundef ptr @_ZNKSt10unique_ptrIA_dSt14default_deleteIS0_EE3getEv(ptr noundef nonnull align 8 dereferenceable(8) %data_) #16
  %0 = load i64, ptr %i.addr, align 8, !tbaa !27
  %arrayidx = getelementptr inbounds nuw double, ptr %call, i64 %0
  ret ptr %arrayidx
}

; Function Attrs: inlinehint mustprogress nounwind uwtable
define linkonce_odr noundef double @_ZNK8QuantLib5ArrayixEm(ptr noundef nonnull align 8 dereferenceable(16) %this, i64 noundef %i) #4 comdat align 2 {
entry:
  %this.addr = alloca ptr, align 8
  %i.addr = alloca i64, align 8
  store ptr %this, ptr %this.addr, align 8, !tbaa !3
  store i64 %i, ptr %i.addr, align 8, !tbaa !27
  %this1 = load ptr, ptr %this.addr, align 8
  %data_ = getelementptr inbounds nuw %"class.QuantLib::Array", ptr %this1, i32 0, i32 0
  %call = call noundef ptr @_ZNKSt10unique_ptrIA_dSt14default_deleteIS0_EE3getEv(ptr noundef nonnull align 8 dereferenceable(8) %data_) #16
  %0 = load i64, ptr %i.addr, align 8, !tbaa !27
  %arrayidx = getelementptr inbounds nuw double, ptr %call, i64 %0
  %1 = load double, ptr %arrayidx, align 8, !tbaa !34
  ret double %1
}

; Function Attrs: mustprogress uwtable
define linkonce_odr noundef double @_ZNK8QuantLib25MersenneTwisterUniformRng8nextRealEv(ptr noundef nonnull align 8 dereferenceable(5000) %this) #0 comdat align 2 {
entry:
  %this.addr = alloca ptr, align 8
  store ptr %this, ptr %this.addr, align 8, !tbaa !3
  %this1 = load ptr, ptr %this.addr, align 8
  %call = call noundef i64 @_ZNK8QuantLib25MersenneTwisterUniformRng9nextInt32Ev(ptr noundef nonnull align 8 dereferenceable(5000) %this1)
  %conv = uitofp i64 %call to double
  %add = fadd double %conv, 5.000000e-01
  %div = fdiv double %add, 0x41F0000000000000
  ret double %div
}

; Function Attrs: inlinehint mustprogress nounwind uwtable
define linkonce_odr noundef i64 @_ZNK8QuantLib5Array4sizeEv(ptr noundef nonnull align 8 dereferenceable(16) %this) #4 comdat align 2 {
entry:
  %this.addr = alloca ptr, align 8
  store ptr %this, ptr %this.addr, align 8, !tbaa !3
  %this1 = load ptr, ptr %this.addr, align 8
  %n_ = getelementptr inbounds nuw %"class.QuantLib::Array", ptr %this1, i32 0, i32 1
  %0 = load i64, ptr %n_, align 8, !tbaa !48
  ret i64 %0
}

; Function Attrs: mustprogress nounwind uwtable
define linkonce_odr noundef nonnull align 8 dereferenceable(16) ptr @_ZNSt6vectorIN8QuantLib5ArrayESaIS1_EEixEm(ptr noundef nonnull align 8 dereferenceable(24) %this, i64 noundef %__n) #3 comdat align 2 {
entry:
  %this.addr = alloca ptr, align 8
  %__n.addr = alloca i64, align 8
  store ptr %this, ptr %this.addr, align 8, !tbaa !3
  store i64 %__n, ptr %__n.addr, align 8, !tbaa !27
  %this1 = load ptr, ptr %this.addr, align 8
  %_M_impl = getelementptr inbounds nuw %"struct.std::_Vector_base", ptr %this1, i32 0, i32 0
  %_M_start = getelementptr inbounds nuw %"struct.std::_Vector_base<QuantLib::Array, std::allocator<QuantLib::Array>>::_Vector_impl_data", ptr %_M_impl, i32 0, i32 0
  %0 = load ptr, ptr %_M_start, align 8, !tbaa !53
  %1 = load i64, ptr %__n.addr, align 8, !tbaa !27
  %add.ptr = getelementptr inbounds nuw %"class.QuantLib::Array", ptr %0, i64 %1
  ret ptr %add.ptr
}

; Function Attrs: mustprogress nounwind uwtable
define linkonce_odr noundef i64 @_ZNKSt6vectorIN8QuantLib5ArrayESaIS1_EE4sizeEv(ptr noundef nonnull align 8 dereferenceable(24) %this) #3 comdat align 2 {
entry:
  %this.addr = alloca ptr, align 8
  store ptr %this, ptr %this.addr, align 8, !tbaa !3
  %this1 = load ptr, ptr %this.addr, align 8
  %_M_impl = getelementptr inbounds nuw %"struct.std::_Vector_base", ptr %this1, i32 0, i32 0
  %_M_finish = getelementptr inbounds nuw %"struct.std::_Vector_base<QuantLib::Array, std::allocator<QuantLib::Array>>::_Vector_impl_data", ptr %_M_impl, i32 0, i32 1
  %0 = load ptr, ptr %_M_finish, align 8, !tbaa !52
  %_M_impl2 = getelementptr inbounds nuw %"struct.std::_Vector_base", ptr %this1, i32 0, i32 0
  %_M_start = getelementptr inbounds nuw %"struct.std::_Vector_base<QuantLib::Array, std::allocator<QuantLib::Array>>::_Vector_impl_data", ptr %_M_impl2, i32 0, i32 0
  %1 = load ptr, ptr %_M_start, align 8, !tbaa !53
  %sub.ptr.lhs.cast = ptrtoint ptr %0 to i64
  %sub.ptr.rhs.cast = ptrtoint ptr %1 to i64
  %sub.ptr.sub = sub i64 %sub.ptr.lhs.cast, %sub.ptr.rhs.cast
  %sub.ptr.div = sdiv exact i64 %sub.ptr.sub, 16
  ret i64 %sub.ptr.div
}

; Function Attrs: mustprogress uwtable
define void @_ZNK8QuantLib21DifferentialEvolution16getCrossoverMaskERSt6vectorINS_5ArrayESaIS2_EES5_RKS2_(ptr noundef nonnull align 8 dereferenceable(5200) %this, ptr noundef nonnull align 8 dereferenceable(24) %crossoverMask, ptr noundef nonnull align 8 dereferenceable(24) %invCrossoverMask, ptr noundef nonnull align 8 dereferenceable(16) %mutationProbabilities) #0 align 2 {
entry:
  %this.addr = alloca ptr, align 8
  %crossoverMask.addr = alloca ptr, align 8
  %invCrossoverMask.addr = alloca ptr, align 8
  %mutationProbabilities.addr = alloca ptr, align 8
  %cmIter = alloca i64, align 8
  %cleanup.dest.slot = alloca i32, align 4
  %memIter = alloca i64, align 8
  store ptr %this, ptr %this.addr, align 8, !tbaa !3
  store ptr %crossoverMask, ptr %crossoverMask.addr, align 8, !tbaa !3
  store ptr %invCrossoverMask, ptr %invCrossoverMask.addr, align 8, !tbaa !3
  store ptr %mutationProbabilities, ptr %mutationProbabilities.addr, align 8, !tbaa !3
  %this1 = load ptr, ptr %this.addr, align 8
  call void @llvm.lifetime.start.p0(i64 8, ptr %cmIter) #16
  store i64 0, ptr %cmIter, align 8, !tbaa !27
  br label %for.cond

for.cond:                                         ; preds = %for.inc15, %entry
  %0 = load i64, ptr %cmIter, align 8, !tbaa !27
  %1 = load ptr, ptr %crossoverMask.addr, align 8, !tbaa !3
  %call = call noundef i64 @_ZNKSt6vectorIN8QuantLib5ArrayESaIS1_EE4sizeEv(ptr noundef nonnull align 8 dereferenceable(24) %1) #16
  %cmp = icmp ult i64 %0, %call
  br i1 %cmp, label %for.body, label %for.cond.cleanup

for.cond.cleanup:                                 ; preds = %for.cond
  store i32 2, ptr %cleanup.dest.slot, align 4
  call void @llvm.lifetime.end.p0(i64 8, ptr %cmIter) #16
  br label %for.end17

for.body:                                         ; preds = %for.cond
  call void @llvm.lifetime.start.p0(i64 8, ptr %memIter) #16
  store i64 0, ptr %memIter, align 8, !tbaa !27
  br label %for.cond2

for.cond2:                                        ; preds = %for.inc, %for.body
  %2 = load i64, ptr %memIter, align 8, !tbaa !27
  %3 = load ptr, ptr %crossoverMask.addr, align 8, !tbaa !3
  %4 = load i64, ptr %cmIter, align 8, !tbaa !27
  %call3 = call noundef nonnull align 8 dereferenceable(16) ptr @_ZNSt6vectorIN8QuantLib5ArrayESaIS1_EEixEm(ptr noundef nonnull align 8 dereferenceable(24) %3, i64 noundef %4) #16
  %call4 = call noundef i64 @_ZNK8QuantLib5Array4sizeEv(ptr noundef nonnull align 8 dereferenceable(16) %call3)
  %cmp5 = icmp ult i64 %2, %call4
  br i1 %cmp5, label %for.body7, label %for.cond.cleanup6

for.cond.cleanup6:                                ; preds = %for.cond2
  store i32 5, ptr %cleanup.dest.slot, align 4
  call void @llvm.lifetime.end.p0(i64 8, ptr %memIter) #16
  br label %for.end

for.body7:                                        ; preds = %for.cond2
  %rng_ = getelementptr inbounds nuw %"class.QuantLib::DifferentialEvolution", ptr %this1, i32 0, i32 7
  %call8 = call noundef double @_ZNK8QuantLib25MersenneTwisterUniformRng8nextRealEv(ptr noundef nonnull align 8 dereferenceable(5000) %rng_)
  %5 = load ptr, ptr %mutationProbabilities.addr, align 8, !tbaa !3
  %6 = load i64, ptr %cmIter, align 8, !tbaa !27
  %call9 = call noundef double @_ZNK8QuantLib5ArrayixEm(ptr noundef nonnull align 8 dereferenceable(16) %5, i64 noundef %6)
  %cmp10 = fcmp olt double %call8, %call9
  br i1 %cmp10, label %if.then, label %if.else

if.then:                                          ; preds = %for.body7
  %7 = load ptr, ptr %invCrossoverMask.addr, align 8, !tbaa !3
  %8 = load i64, ptr %cmIter, align 8, !tbaa !27
  %call11 = call noundef nonnull align 8 dereferenceable(16) ptr @_ZNSt6vectorIN8QuantLib5ArrayESaIS1_EEixEm(ptr noundef nonnull align 8 dereferenceable(24) %7, i64 noundef %8) #16
  %9 = load i64, ptr %memIter, align 8, !tbaa !27
  %call12 = call noundef nonnull align 8 dereferenceable(8) ptr @_ZN8QuantLib5ArrayixEm(ptr noundef nonnull align 8 dereferenceable(16) %call11, i64 noundef %9)
  store double 0.000000e+00, ptr %call12, align 8, !tbaa !34
  br label %if.end

if.else:                                          ; preds = %for.body7
  %10 = load ptr, ptr %crossoverMask.addr, align 8, !tbaa !3
  %11 = load i64, ptr %cmIter, align 8, !tbaa !27
  %call13 = call noundef nonnull align 8 dereferenceable(16) ptr @_ZNSt6vectorIN8QuantLib5ArrayESaIS1_EEixEm(ptr noundef nonnull align 8 dereferenceable(24) %10, i64 noundef %11) #16
  %12 = load i64, ptr %memIter, align 8, !tbaa !27
  %call14 = call noundef nonnull align 8 dereferenceable(8) ptr @_ZN8QuantLib5ArrayixEm(ptr noundef nonnull align 8 dereferenceable(16) %call13, i64 noundef %12)
  store double 0.000000e+00, ptr %call14, align 8, !tbaa !34
  br label %if.end

if.end:                                           ; preds = %if.else, %if.then
  br label %for.inc

for.inc:                                          ; preds = %if.end
  %13 = load i64, ptr %memIter, align 8, !tbaa !27
  %inc = add i64 %13, 1
  store i64 %inc, ptr %memIter, align 8, !tbaa !27
  br label %for.cond2, !llvm.loop !87

for.end:                                          ; preds = %for.cond.cleanup6
  br label %for.inc15

for.inc15:                                        ; preds = %for.end
  %14 = load i64, ptr %cmIter, align 8, !tbaa !27
  %inc16 = add i64 %14, 1
  store i64 %inc16, ptr %cmIter, align 8, !tbaa !27
  br label %for.cond, !llvm.loop !88

for.end17:                                        ; preds = %for.cond.cleanup
  ret void
}