; Function Attrs: mustprogress uwtable
define void @_ZNK8QuantLib21DifferentialEvolution16getCrossoverMaskERSt6vectorINS_5ArrayESaIS2_EES5_RKS2_(ptr noundef nonnull align 8 dereferenceable(5200) %this, ptr nocapture noundef nonnull readonly align 8 dereferenceable(24) %crossoverMask, ptr nocapture noundef nonnull readonly align 8 dereferenceable(24) %invCrossoverMask, ptr nocapture noundef nonnull readonly align 8 dereferenceable(16) %mutationProbabilities) local_unnamed_addr #0 align 2 {
entry:
  %_M_finish.i = getelementptr inbounds nuw i8, ptr %crossoverMask, i64 8
  %0 = load ptr, ptr %_M_finish.i, align 8, !tbaa !134
  %1 = load ptr, ptr %crossoverMask, align 8, !tbaa !46
  %cmp22.not = icmp eq ptr %0, %1
  br i1 %cmp22.not, label %for.cond.cleanup, label %for.cond2.preheader.lr.ph

for.cond2.preheader.lr.ph:                        ; preds = %entry
  %rng_ = getelementptr inbounds nuw i8, ptr %this, i64 200
  %mti.i.i = getelementptr inbounds nuw i8, ptr %this, i64 5192
  br label %for.cond2.preheader

for.cond2.preheader:                              ; preds = %for.cond2.preheader.lr.ph, %for.cond.cleanup6
  %2 = phi ptr [ %1, %for.cond2.preheader.lr.ph ], [ %5, %for.cond.cleanup6 ]
  %3 = phi ptr [ %0, %for.cond2.preheader.lr.ph ], [ %6, %for.cond.cleanup6 ]
  %cmIter.023 = phi i64 [ 0, %for.cond2.preheader.lr.ph ], [ %inc16, %for.cond.cleanup6 ]
  %n_.i15 = getelementptr inbounds nuw %"class.QuantLib::Array", ptr %2, i64 %cmIter.023, i32 1
  %4 = load i64, ptr %n_.i15, align 8, !tbaa !21
  %cmp516.not = icmp eq i64 %4, 0
  br i1 %cmp516.not, label %for.cond.cleanup6, label %for.body7.preheader

for.body7.preheader:                              ; preds = %for.cond2.preheader
  %.pre = load i64, ptr %mti.i.i, align 8, !tbaa !68
  br label %for.body7

for.cond.cleanup:                                 ; preds = %for.cond.cleanup6, %entry
  ret void

for.cond.cleanup6.loopexit:                       ; preds = %for.inc
  %.pre25 = load ptr, ptr %_M_finish.i, align 8, !tbaa !134
  br label %for.cond.cleanup6

for.cond.cleanup6:                                ; preds = %for.cond.cleanup6.loopexit, %for.cond2.preheader
  %5 = phi ptr [ %16, %for.cond.cleanup6.loopexit ], [ %2, %for.cond2.preheader ]
  %6 = phi ptr [ %.pre25, %for.cond.cleanup6.loopexit ], [ %3, %for.cond2.preheader ]
  %inc16 = add nuw i64 %cmIter.023, 1
  %sub.ptr.lhs.cast.i = ptrtoint ptr %6 to i64
  %sub.ptr.rhs.cast.i = ptrtoint ptr %5 to i64
  %sub.ptr.sub.i = sub i64 %sub.ptr.lhs.cast.i, %sub.ptr.rhs.cast.i
  %sub.ptr.div.i = ashr exact i64 %sub.ptr.sub.i, 4
  %cmp = icmp ult i64 %inc16, %sub.ptr.div.i
  br i1 %cmp, label %for.cond2.preheader, label %for.cond.cleanup, !llvm.loop !135

for.body7:                                        ; preds = %for.body7.preheader, %for.inc
  %7 = phi i64 [ %inc.i.i, %for.inc ], [ %.pre, %for.body7.preheader ]
  %memIter.017 = phi i64 [ %inc, %for.inc ], [ 0, %for.body7.preheader ]
  %cmp.i.i = icmp eq i64 %7, 624
  br i1 %cmp.i.i, label %if.then.i.i, label %_ZNK8QuantLib25MersenneTwisterUniformRng8nextRealEv.exit

if.then.i.i:                                      ; preds = %for.body7
  tail call void @_ZNK8QuantLib25MersenneTwisterUniformRng5twistEv(ptr noundef nonnull align 8 dereferenceable(5000) %rng_)
  %.pre.i.i = load i64, ptr %mti.i.i, align 8, !tbaa !68
  br label %_ZNK8QuantLib25MersenneTwisterUniformRng8nextRealEv.exit

_ZNK8QuantLib25MersenneTwisterUniformRng8nextRealEv.exit: ; preds = %for.body7, %if.then.i.i
  %8 = phi i64 [ %.pre.i.i, %if.then.i.i ], [ %7, %for.body7 ]
  %inc.i.i = add i64 %8, 1
  store i64 %inc.i.i, ptr %mti.i.i, align 8, !tbaa !68
  %arrayidx.i.i = getelementptr inbounds nuw [624 x i64], ptr %rng_, i64 0, i64 %8
  %9 = load i64, ptr %arrayidx.i.i, align 8, !tbaa !24
  %shr.i.i = lshr i64 %9, 11
  %xor.i.i = xor i64 %shr.i.i, %9
  %shl.i.i = shl i64 %xor.i.i, 7
  %and.i.i = and i64 %shl.i.i, 2636928640
  %xor3.i.i = xor i64 %and.i.i, %xor.i.i
  %shl4.i.i = shl i64 %xor3.i.i, 15
  %and5.i.i = and i64 %shl4.i.i, 4022730752
  %xor6.i.i = xor i64 %and5.i.i, %xor3.i.i
  %shr7.i.i = lshr i64 %xor6.i.i, 18
  %xor8.i.i = xor i64 %shr7.i.i, %xor6.i.i
  %conv.i = uitofp i64 %xor8.i.i to double
  %add.i = fadd double %conv.i, 5.000000e-01
  %div.i = fmul double %add.i, 0x3DF0000000000000
  %10 = load ptr, ptr %mutationProbabilities, align 8, !tbaa !23
  %arrayidx.i = getelementptr inbounds nuw double, ptr %10, i64 %cmIter.023
  %11 = load double, ptr %arrayidx.i, align 8, !tbaa !40
  %cmp10 = fcmp olt double %div.i, %11
  br i1 %cmp10, label %if.then, label %if.else

if.then:                                          ; preds = %_ZNK8QuantLib25MersenneTwisterUniformRng8nextRealEv.exit
  %12 = load ptr, ptr %invCrossoverMask, align 8, !tbaa !46
  %add.ptr.i11 = getelementptr inbounds nuw %"class.QuantLib::Array", ptr %12, i64 %cmIter.023
  %13 = load ptr, ptr %add.ptr.i11, align 8, !tbaa !23
  %arrayidx.i12 = getelementptr inbounds nuw double, ptr %13, i64 %memIter.017
  store double 0.000000e+00, ptr %arrayidx.i12, align 8, !tbaa !40
  %.pre24 = load ptr, ptr %crossoverMask, align 8, !tbaa !46
  br label %for.inc

if.else:                                          ; preds = %_ZNK8QuantLib25MersenneTwisterUniformRng8nextRealEv.exit
  %14 = load ptr, ptr %crossoverMask, align 8, !tbaa !46
  %add.ptr.i13 = getelementptr inbounds nuw %"class.QuantLib::Array", ptr %14, i64 %cmIter.023
  %15 = load ptr, ptr %add.ptr.i13, align 8, !tbaa !23
  %arrayidx.i14 = getelementptr inbounds nuw double, ptr %15, i64 %memIter.017
  store double 0.000000e+00, ptr %arrayidx.i14, align 8, !tbaa !40
  br label %for.inc

for.inc:                                          ; preds = %if.then, %if.else
  %16 = phi ptr [ %.pre24, %if.then ], [ %14, %if.else ]
  %inc = add nuw i64 %memIter.017, 1
  %n_.i = getelementptr inbounds nuw %"class.QuantLib::Array", ptr %16, i64 %cmIter.023, i32 1
  %17 = load i64, ptr %n_.i, align 8, !tbaa !21
  %cmp5 = icmp ult i64 %inc, %17
  br i1 %cmp5, label %for.body7, label %for.cond.cleanup6.loopexit, !llvm.loop !136
}